; Function Attrs: mustprogress nounwind uwtable
define void @_ZN4pkpy7SStream9write_hexEPv(ptr nocapture noundef nonnull align 8 dereferenceable(20) %0, ptr noundef %1) local_unnamed_addr #4 align 2 {
  %3 = icmp eq ptr %1, null
  %4 = getelementptr inbounds i8, ptr %0, i64 4
  %5 = getelementptr inbounds i8, ptr %0, i64 8
  br i1 %3, label %.lr.ph.i.i, label %.lr.ph.i.i12

.lr.ph.i.i:                                       ; preds = %2, %_ZN4pkpy10pod_vectorIcLi2EE9push_backIRKcEEvOT_.exit.i.i
  %.07.i.i.idx = phi i64 [ %.07.i.i.add, %_ZN4pkpy10pod_vectorIcLi2EE9push_backIRKcEEvOT_.exit.i.i ], [ 0, %2 ]
  %.07.i.i.ptr = getelementptr inbounds i8, ptr @.str.18, i64 %.07.i.i.idx
  %6 = load i32, ptr %0, align 8
  %7 = load i32, ptr %4, align 4
  %8 = icmp eq i32 %6, %7
  br i1 %8, label %9, label %_ZN4pkpy10pod_vectorIcLi2EE9push_backIRKcEEvOT_.exit.i.i

9:                                                ; preds = %.lr.ph.i.i
  %10 = shl nsw i32 %6, 1
  %.not.i.i.i.i = icmp slt i32 %6, %10
  br i1 %.not.i.i.i.i, label %11, label %_ZN4pkpy10pod_vectorIcLi2EE9push_backIRKcEEvOT_.exit.i.i

11:                                               ; preds = %9
  store i32 %10, ptr %4, align 4
  %12 = load ptr, ptr %5, align 8
  %13 = sext i32 %10 to i64
  %14 = tail call noundef ptr @_ZN4pkpy12pool64_allocEm(i64 noundef %13) #23
  store ptr %14, ptr %5, align 8
  %.not6.i.i.i.i = icmp eq ptr %12, null
  %.pre2.i.i.i = load i32, ptr %0, align 8
  br i1 %.not6.i.i.i.i, label %_ZN4pkpy10pod_vectorIcLi2EE9push_backIRKcEEvOT_.exit.i.i, label %15

15:                                               ; preds = %11
  %16 = sext i32 %.pre2.i.i.i to i64
  tail call void @llvm.memcpy.p0.p0.i64(ptr align 1 %14, ptr nonnull align 1 %12, i64 %16, i1 false)
  tail call void @_ZN4pkpy14pool64_deallocEPv(ptr noundef nonnull %12) #23
  %.pre.i.i.i = load i32, ptr %0, align 8
  br label %_ZN4pkpy10pod_vectorIcLi2EE9push_backIRKcEEvOT_.exit.i.i

_ZN4pkpy10pod_vectorIcLi2EE9push_backIRKcEEvOT_.exit.i.i: ; preds = %15, %11, %9, %.lr.ph.i.i
  %17 = phi i32 [ %.pre.i.i.i, %15 ], [ %.pre2.i.i.i, %11 ], [ %6, %9 ], [ %6, %.lr.ph.i.i ]
  %18 = load i8, ptr %.07.i.i.ptr, align 1
  %19 = load ptr, ptr %5, align 8
  %20 = add nsw i32 %17, 1
  store i32 %20, ptr %0, align 8
  %21 = sext i32 %17 to i64
  %22 = getelementptr inbounds i8, ptr %19, i64 %21
  store i8 %18, ptr %22, align 1
  %.07.i.i.add = add nuw nsw i64 %.07.i.i.idx, 1
  %.not.i.i = icmp eq i64 %.07.i.i.add, 3
  br i1 %.not.i.i, label %_ZN4pkpy7SStreamlsEPKc.exit, label %.lr.ph.i.i, !llvm.loop !51

.lr.ph.i.i12:                                     ; preds = %2, %_ZN4pkpy10pod_vectorIcLi2EE9push_backIRKcEEvOT_.exit.i.i14
  %.07.i.i13.idx = phi i64 [ %.07.i.i13.add, %_ZN4pkpy10pod_vectorIcLi2EE9push_backIRKcEEvOT_.exit.i.i14 ], [ 0, %2 ]
  %.07.i.i13.ptr = getelementptr inbounds i8, ptr @.str.19, i64 %.07.i.i13.idx
  %23 = load i32, ptr %0, align 8
  %24 = load i32, ptr %4, align 4
  %25 = icmp eq i32 %23, %24
  br i1 %25, label %26, label %_ZN4pkpy10pod_vectorIcLi2EE9push_backIRKcEEvOT_.exit.i.i14

26:                                               ; preds = %.lr.ph.i.i12
  %27 = shl nsw i32 %23, 1
  %.not.i.i.i.i16 = icmp slt i32 %23, %27
  br i1 %.not.i.i.i.i16, label %28, label %_ZN4pkpy10pod_vectorIcLi2EE9push_backIRKcEEvOT_.exit.i.i14

28:                                               ; preds = %26
  store i32 %27, ptr %4, align 4
  %29 = load ptr, ptr %5, align 8
  %30 = sext i32 %27 to i64
  %31 = tail call noundef ptr @_ZN4pkpy12pool64_allocEm(i64 noundef %30) #23
  store ptr %31, ptr %5, align 8
  %.not6.i.i.i.i17 = icmp eq ptr %29, null
  %.pre2.i.i.i18 = load i32, ptr %0, align 8
  br i1 %.not6.i.i.i.i17, label %_ZN4pkpy10pod_vectorIcLi2EE9push_backIRKcEEvOT_.exit.i.i14, label %32

32:                                               ; preds = %28
  %33 = sext i32 %.pre2.i.i.i18 to i64
  tail call void @llvm.memcpy.p0.p0.i64(ptr align 1 %31, ptr nonnull align 1 %29, i64 %33, i1 false)
  tail call void @_ZN4pkpy14pool64_deallocEPv(ptr noundef nonnull %29) #23
  %.pre.i.i.i19 = load i32, ptr %0, align 8
  br label %_ZN4pkpy10pod_vectorIcLi2EE9push_backIRKcEEvOT_.exit.i.i14

_ZN4pkpy10pod_vectorIcLi2EE9push_backIRKcEEvOT_.exit.i.i14: ; preds = %32, %28, %26, %.lr.ph.i.i12
  %34 = phi i32 [ %.pre.i.i.i19, %32 ], [ %.pre2.i.i.i18, %28 ], [ %23, %26 ], [ %23, %.lr.ph.i.i12 ]
  %35 = load i8, ptr %.07.i.i13.ptr, align 1
  %36 = load ptr, ptr %5, align 8
  %37 = add nsw i32 %34, 1
  store i32 %37, ptr %0, align 8
  %38 = sext i32 %34 to i64
  %39 = getelementptr inbounds i8, ptr %36, i64 %38
  store i8 %35, ptr %39, align 1
  %.07.i.i13.add = add nuw nsw i64 %.07.i.i13.idx, 1
  %.not.i.i15 = icmp eq i64 %.07.i.i13.add, 2
  br i1 %.not.i.i15, label %_ZN4pkpy7SStreamlsEPKc.exit20, label %.lr.ph.i.i12, !llvm.loop !51

_ZN4pkpy7SStreamlsEPKc.exit20:                    ; preds = %_ZN4pkpy10pod_vectorIcLi2EE9push_backIRKcEEvOT_.exit.i.i14
  %40 = ptrtoint ptr %1 to i64
  br label %41

41:                                               ; preds = %_ZN4pkpy7SStreamlsEPKc.exit20, %41
  %indvars.iv = phi i64 [ 7, %_ZN4pkpy7SStreamlsEPKc.exit20 ], [ %indvars.iv.next, %41 ]
  %.023 = phi i1 [ true, %_ZN4pkpy7SStreamlsEPKc.exit20 ], [ %spec.select, %41 ]
  %42 = shl nsw i64 %indvars.iv, 3
  %43 = lshr i64 %40, %42
  %44 = trunc i64 %43 to i8
  tail call void @_ZN4pkpy7SStream9write_hexEhb(ptr noundef nonnull align 8 dereferenceable(20) %0, i8 noundef zeroext %44, i1 noundef zeroext %.023)
  %45 = and i64 %43, 255
  %.not = icmp eq i64 %45, 0
  %spec.select = and i1 %.not, %.023
  %indvars.iv.next = add nsw i64 %indvars.iv, -1
  %.not25 = icmp eq i64 %indvars.iv, 0
  br i1 %.not25, label %_ZN4pkpy7SStreamlsEPKc.exit, label %41, !llvm.loop !92

_ZN4pkpy7SStreamlsEPKc.exit:                      ; preds = %41, %_ZN4pkpy10pod_vectorIcLi2EE9push_backIRKcEEvOT_.exit.i.i
  ret void
}